target datalayout = "e-m:e-p270:32:32-p271:32:32-p272:64:64-i64:64-i128:128-f80:128-n8:16:32:64-S128"
target triple = "x86_64-pc-linux-gnu"

@.str.32 = private unnamed_addr constant [12 x i8] c"__metatable\00", align 1
@.str.39 = private unnamed_addr constant [13 x i8] c"nil or table\00", align 1
@.str.40 = private unnamed_addr constant [36 x i8] c"cannot change a protected metatable\00", align 1

; Function Attrs: mustprogress uwtable
define internal noundef i32 @_ZL17luaB_setmetatableP9lua_State(ptr noundef %0) #0 {
  %2 = alloca ptr, align 8
  %3 = alloca i32, align 4
  store ptr %0, ptr %2, align 8
  %4 = load ptr, ptr %2, align 8
  %5 = call noundef i32 @_Z8lua_typeP9lua_Statei(ptr noundef %4, i32 noundef 2)
  store i32 %5, ptr %3, align 4
  %6 = load ptr, ptr %2, align 8
  call void @_Z14luaL_checktypeP9lua_Stateii(ptr noundef %6, i32 noundef 1, i32 noundef 6)
  %7 = load i32, ptr %3, align 4
  %8 = icmp eq i32 %7, 0
  br i1 %8, label %12, label %9

9:                                                ; preds = %1
  %10 = load i32, ptr %3, align 4
  %11 = icmp eq i32 %10, 6
  br i1 %11, label %12, label %13

12:                                               ; preds = %9, %1
  br label %16

13:                                               ; preds = %9
  %14 = load ptr, ptr %2, align 8
  call void @_Z15luaL_typeerrorLP9lua_StateiPKc(ptr noundef %14, i32 noundef 2, ptr noundef @.str.39) #5
  unreachable

15:                                               ; No predecessors!
  br label %16

16:                                               ; preds = %15, %12
  %17 = load ptr, ptr %2, align 8
  %18 = call noundef i32 @_Z17luaL_getmetafieldP9lua_StateiPKc(ptr noundef %17, i32 noundef 1, ptr noundef @.str.32)
  %19 = icmp ne i32 %18, 0
  br i1 %19, label %20, label %22

20:                                               ; preds = %16
  %21 = load ptr, ptr %2, align 8
  call void (ptr, ptr, ...) @_Z11luaL_errorLP9lua_StatePKcz(ptr noundef %21, ptr noundef @.str.40) #5
  unreachable

22:                                               ; preds = %16
  %23 = load ptr, ptr %2, align 8
  call void @_Z10lua_settopP9lua_Statei(ptr noundef %23, i32 noundef 2)
  %24 = load ptr, ptr %2, align 8
  %25 = call noundef i32 @_Z16lua_setmetatableP9lua_Statei(ptr noundef %24, i32 noundef 1)
  ret i32 1
}