; Function Attrs: mustprogress uwtable
define internal noundef i32 @_ZL17luaB_setmetatableP9lua_State(ptr noundef %0) #0 {
  %2 = tail call noundef i32 @_Z8lua_typeP9lua_Statei(ptr noundef %0, i32 noundef 2)
  tail call void @_Z14luaL_checktypeP9lua_Stateii(ptr noundef %0, i32 noundef 1, i32 noundef 6)
  switch i32 %2, label %3 [
    i32 6, label %4
    i32 0, label %4
  ]

3:                                                ; preds = %1
  tail call void @_Z15luaL_typeerrorLP9lua_StateiPKc(ptr noundef %0, i32 noundef 2, ptr noundef nonnull @.str.39) #9
  unreachable

4:                                                ; preds = %1, %1
  %5 = tail call noundef i32 @_Z17luaL_getmetafieldP9lua_StateiPKc(ptr noundef %0, i32 noundef 1, ptr noundef nonnull @.str.32)
  %.not = icmp eq i32 %5, 0
  br i1 %.not, label %7, label %6

6:                                                ; preds = %4
  tail call void (ptr, ptr, ...) @_Z11luaL_errorLP9lua_StatePKcz(ptr noundef %0, ptr noundef nonnull @.str.40) #9
  unreachable

7:                                                ; preds = %4
  tail call void @_Z10lua_settopP9lua_Statei(ptr noundef %0, i32 noundef 2)
  %8 = tail call noundef i32 @_Z16lua_setmetatableP9lua_Statei(ptr noundef %0, i32 noundef 1)
  ret i32 1
}